target datalayout = "e-m:e-p270:32:32-p271:32:32-p272:64:64-i64:64-i128:128-f80:128-n8:16:32:64-S128"
target triple = "x86_64-pc-linux-gnu"

@.str.2 = private unnamed_addr constant [2 x i8] c",\00", align 1
@.str.138 = private unnamed_addr constant [1 x i8] zeroinitializer, align 1
@.str.139 = private unnamed_addr constant [6 x i8] c"CYCLE\00", align 1
@.str.140 = private unnamed_addr constant [5 x i8] c"%s%s\00", align 1
@.str.141 = private unnamed_addr constant [4 x i8] c"ANY\00", align 1
@.str.142 = private unnamed_addr constant [5 x i8] c"IDLE\00", align 1
@.str.143 = private unnamed_addr constant [6 x i8] c"ALLOC\00", align 1
@.str.144 = private unnamed_addr constant [6 x i8] c"MIXED\00", align 1
@.str.145 = private unnamed_addr constant [16 x i8] c"NONDRAINED_IDLE\00", align 1

; Function Attrs: nounwind uwtable
define dso_local ptr @health_check_node_state_str(i32 noundef %0) #0 {
  %2 = alloca ptr, align 8
  %3 = alloca i32, align 4
  %4 = alloca ptr, align 8
  %5 = alloca ptr, align 8
  %6 = alloca i32, align 4
  store i32 %0, ptr %3, align 4
  call void @llvm.lifetime.start.p0(i64 8, ptr %4) #11
  store ptr null, ptr %4, align 8
  call void @llvm.lifetime.start.p0(i64 8, ptr %5) #11
  store ptr @.str.138, ptr %5, align 8
  %7 = load i32, ptr %3, align 4
  %8 = and i32 %7, 32768
  %9 = icmp ne i32 %8, 0
  br i1 %9, label %10, label %12

10:                                               ; preds = %1
  %11 = call ptr @xstrdup(ptr noundef @.str.139)
  store ptr %11, ptr %4, align 8
  store ptr @.str.2, ptr %5, align 8
  br label %12

12:                                               ; preds = %10, %1
  %13 = load i32, ptr %3, align 4
  %14 = and i32 %13, 15
  %15 = icmp eq i32 %14, 15
  br i1 %15, label %16, label %19

16:                                               ; preds = %12
  %17 = load ptr, ptr %5, align 8
  call void (ptr, ptr, ...) @_xstrfmtcat(ptr noundef %4, ptr noundef @.str.140, ptr noundef %17, ptr noundef @.str.141)
  %18 = load ptr, ptr %4, align 8
  store ptr %18, ptr %2, align 8
  store i32 1, ptr %6, align 4
  br label %45

19:                                               ; preds = %12
  %20 = load i32, ptr %3, align 4
  %21 = and i32 %20, 1
  %22 = icmp ne i32 %21, 0
  br i1 %22, label %23, label %25

23:                                               ; preds = %19
  %24 = load ptr, ptr %5, align 8
  call void (ptr, ptr, ...) @_xstrfmtcat(ptr noundef %4, ptr noundef @.str.140, ptr noundef %24, ptr noundef @.str.142)
  store ptr @.str.2, ptr %5, align 8
  br label %25

25:                                               ; preds = %23, %19
  %26 = load i32, ptr %3, align 4
  %27 = and i32 %26, 2
  %28 = icmp ne i32 %27, 0
  br i1 %28, label %29, label %31

29:                                               ; preds = %25
  %30 = load ptr, ptr %5, align 8
  call void (ptr, ptr, ...) @_xstrfmtcat(ptr noundef %4, ptr noundef @.str.140, ptr noundef %30, ptr noundef @.str.143)
  store ptr @.str.2, ptr %5, align 8
  br label %31

31:                                               ; preds = %29, %25
  %32 = load i32, ptr %3, align 4
  %33 = and i32 %32, 4
  %34 = icmp ne i32 %33, 0
  br i1 %34, label %35, label %37

35:                                               ; preds = %31
  %36 = load ptr, ptr %5, align 8
  call void (ptr, ptr, ...) @_xstrfmtcat(ptr noundef %4, ptr noundef @.str.140, ptr noundef %36, ptr noundef @.str.144)
  store ptr @.str.2, ptr %5, align 8
  br label %37

37:                                               ; preds = %35, %31
  %38 = load i32, ptr %3, align 4
  %39 = and i32 %38, 8
  %40 = icmp ne i32 %39, 0
  br i1 %40, label %41, label %43

41:                                               ; preds = %37
  %42 = load ptr, ptr %5, align 8
  call void (ptr, ptr, ...) @_xstrfmtcat(ptr noundef %4, ptr noundef @.str.140, ptr noundef %42, ptr noundef @.str.145)
  store ptr @.str.2, ptr %5, align 8
  br label %43

43:                                               ; preds = %41, %37
  %44 = load ptr, ptr %4, align 8
  store ptr %44, ptr %2, align 8
  store i32 1, ptr %6, align 4
  br label %45

45:                                               ; preds = %43, %16
  call void @llvm.lifetime.end.p0(i64 8, ptr %5) #11
  call void @llvm.lifetime.end.p0(i64 8, ptr %4) #11
  %46 = load ptr, ptr %2, align 8
  ret ptr %46
}