; Function Attrs: nounwind uwtable
define dso_local ptr @health_check_node_state_str(i32 noundef %0) local_unnamed_addr #1 {
  %2 = alloca ptr, align 8
  call void @llvm.lifetime.start.p0(i64 8, ptr nonnull %2) #24
  store ptr null, ptr %2, align 8
  %3 = and i32 %0, 32768
  %.not = icmp eq i32 %3, 0
  br i1 %.not, label %6, label %4

4:                                                ; preds = %1
  %5 = tail call ptr @xstrdup(ptr noundef nonnull @.str.139) #24
  store ptr %5, ptr %2, align 8
  br label %6

6:                                                ; preds = %4, %1
  %.0 = phi ptr [ @.str.2, %4 ], [ @.str.138, %1 ]
  %7 = and i32 %0, 15
  %8 = icmp eq i32 %7, 15
  br i1 %8, label %9, label %10

9:                                                ; preds = %6
  call void (ptr, ptr, ...) @_xstrfmtcat(ptr noundef nonnull %2, ptr noundef nonnull @.str.140, ptr noundef nonnull %.0, ptr noundef nonnull @.str.141) #24
  br label %22

10:                                               ; preds = %6
  %11 = and i32 %0, 1
  %.not12 = icmp eq i32 %11, 0
  br i1 %.not12, label %13, label %12

12:                                               ; preds = %10
  call void (ptr, ptr, ...) @_xstrfmtcat(ptr noundef nonnull %2, ptr noundef nonnull @.str.140, ptr noundef nonnull %.0, ptr noundef nonnull @.str.142) #24
  br label %13

13:                                               ; preds = %12, %10
  %.1 = phi ptr [ @.str.2, %12 ], [ %.0, %10 ]
  %14 = and i32 %0, 2
  %.not13 = icmp eq i32 %14, 0
  br i1 %.not13, label %16, label %15

15:                                               ; preds = %13
  call void (ptr, ptr, ...) @_xstrfmtcat(ptr noundef nonnull %2, ptr noundef nonnull @.str.140, ptr noundef nonnull %.1, ptr noundef nonnull @.str.143) #24
  br label %16

16:                                               ; preds = %15, %13
  %.2 = phi ptr [ @.str.2, %15 ], [ %.1, %13 ]
  %17 = and i32 %0, 4
  %.not14 = icmp eq i32 %17, 0
  br i1 %.not14, label %19, label %18

18:                                               ; preds = %16
  call void (ptr, ptr, ...) @_xstrfmtcat(ptr noundef nonnull %2, ptr noundef nonnull @.str.140, ptr noundef %.2, ptr noundef nonnull @.str.144) #24
  br label %19

19:                                               ; preds = %18, %16
  %.3 = phi ptr [ @.str.2, %18 ], [ %.2, %16 ]
  %20 = and i32 %0, 8
  %.not15 = icmp eq i32 %20, 0
  br i1 %.not15, label %22, label %21

21:                                               ; preds = %19
  call void (ptr, ptr, ...) @_xstrfmtcat(ptr noundef nonnull %2, ptr noundef nonnull @.str.140, ptr noundef %.3, ptr noundef nonnull @.str.145) #24
  br label %22

22:                                               ; preds = %19, %21, %9
  %.011 = load ptr, ptr %2, align 8
  call void @llvm.lifetime.end.p0(i64 8, ptr nonnull %2) #24
  ret ptr %.011
}